target datalayout = "e-m:e-p270:32:32-p271:32:32-p272:64:64-i64:64-i128:128-f80:128-n8:16:32:64-S128"
target triple = "x86_64-pc-linux-gnu"

%union.pthread_mutex_t = type { %struct.__pthread_mutex_s }
%struct.__pthread_mutex_s = type { i32, i32, i32, i32, i32, i16, i16, %struct.__pthread_internal_list }
%struct.__pthread_internal_list = type { ptr, ptr }
%struct.node_features_ops = type { ptr, ptr, ptr, ptr, ptr, ptr, ptr, ptr, ptr, ptr, ptr, ptr, ptr, ptr, ptr, ptr, ptr }
%struct.timeval = type { i64, i64 }

@g_context_lock = internal global %union.pthread_mutex_t zeroinitializer, align 8
@.str.1 = private unnamed_addr constant [29 x i8] c"%s: pthread_mutex_lock(): %m\00", align 1
@g_context_cnt = internal global i32 -1, align 4
@ops = internal global ptr null, align 8
@.str.7 = private unnamed_addr constant [31 x i8] c"%s: pthread_mutex_unlock(): %m\00", align 1
@__func__.node_features_g_step_config = private unnamed_addr constant [28 x i8] c"node_features_g_step_config\00", align 1

; Function Attrs: nounwind uwtable
define dso_local void @node_features_g_step_config(i1 noundef zeroext %0, ptr noundef %1) #0 {
  %3 = alloca i8, align 1
  %4 = alloca ptr, align 8
  %5 = alloca %struct.timeval, align 8
  %6 = alloca %struct.timeval, align 8
  %7 = alloca [20 x i8], align 16
  %8 = alloca i64, align 8
  %9 = alloca i32, align 4
  %10 = alloca i32, align 4
  %11 = alloca i32, align 4
  %12 = zext i1 %0 to i8
  store i8 %12, ptr %3, align 1
  store ptr %1, ptr %4, align 8
  call void @llvm.lifetime.start.p0(i64 16, ptr %5) #7
  call void @llvm.lifetime.start.p0(i64 16, ptr %6) #7
  call void @llvm.lifetime.start.p0(i64 20, ptr %7) #7
  call void @llvm.memset.p0.i64(ptr align 16 %7, i8 0, i64 20, i1 false)
  call void @llvm.lifetime.start.p0(i64 8, ptr %8) #7
  call void @llvm.lifetime.start.p0(i64 4, ptr %9) #7
  %13 = call i32 @gettimeofday(ptr noundef %5, ptr noundef null) #7
  br label %14

14:                                               ; preds = %2
  call void @llvm.lifetime.start.p0(i64 4, ptr %10) #7
  %15 = call i32 @pthread_mutex_lock(ptr noundef @g_context_lock) #7
  store i32 %15, ptr %10, align 4
  %16 = load i32, ptr %10, align 4
  %17 = icmp ne i32 %16, 0
  br i1 %17, label %18, label %21

18:                                               ; preds = %14
  %19 = load i32, ptr %10, align 4
  %20 = call ptr @__errno_location() #8
  store i32 %19, ptr %20, align 4
  call void (ptr, ...) @fatal_abort(ptr noundef @.str.1, ptr noundef @__func__.node_features_g_step_config) #9
  unreachable

21:                                               ; preds = %14
  call void @llvm.lifetime.end.p0(i64 4, ptr %10) #7
  br label %22

22:                                               ; preds = %21
  br label %23

23:                                               ; preds = %22
  store i32 0, ptr %9, align 4
  br label %24

24:                                               ; preds = %38, %23
  %25 = load i32, ptr %9, align 4
  %26 = load i32, ptr @g_context_cnt, align 4
  %27 = icmp slt i32 %25, %26
  br i1 %27, label %28, label %41

28:                                               ; preds = %24
  %29 = load ptr, ptr @ops, align 8
  %30 = load i32, ptr %9, align 4
  %31 = sext i32 %30 to i64
  %32 = getelementptr inbounds %struct.node_features_ops, ptr %29, i64 %31
  %33 = getelementptr inbounds nuw %struct.node_features_ops, ptr %32, i32 0, i32 14
  %34 = load ptr, ptr %33, align 8
  %35 = load i8, ptr %3, align 1, !range !12, !noundef !13
  %36 = trunc i8 %35 to i1
  %37 = load ptr, ptr %4, align 8
  call void %34(i1 noundef zeroext %36, ptr noundef %37)
  br label %38

38:                                               ; preds = %28
  %39 = load i32, ptr %9, align 4
  %40 = add nsw i32 %39, 1
  store i32 %40, ptr %9, align 4
  br label %24, !llvm.loop !14

41:                                               ; preds = %24
  br label %42

42:                                               ; preds = %41
  call void @llvm.lifetime.start.p0(i64 4, ptr %11) #7
  %43 = call i32 @pthread_mutex_unlock(ptr noundef @g_context_lock) #7
  store i32 %43, ptr %11, align 4
  %44 = load i32, ptr %11, align 4
  %45 = icmp ne i32 %44, 0
  br i1 %45, label %46, label %49

46:                                               ; preds = %42
  %47 = load i32, ptr %11, align 4
  %48 = call ptr @__errno_location() #8
  store i32 %47, ptr %48, align 4
  call void (ptr, ...) @fatal_abort(ptr noundef @.str.7, ptr noundef @__func__.node_features_g_step_config) #9
  unreachable

49:                                               ; preds = %42
  call void @llvm.lifetime.end.p0(i64 4, ptr %11) #7
  br label %50

50:                                               ; preds = %49
  br label %51

51:                                               ; preds = %50
  br label %52

52:                                               ; preds = %51
  %53 = call i32 @gettimeofday(ptr noundef %6, ptr noundef null) #7
  %54 = getelementptr inbounds [20 x i8], ptr %7, i64 0, i64 0
  call void @slurm_diff_tv_str(ptr noundef %5, ptr noundef %6, ptr noundef %54, i32 noundef 20, ptr noundef @__func__.node_features_g_step_config, i64 noundef 0, ptr noundef %8)
  br label %55

55:                                               ; preds = %52
  br label %56

56:                                               ; preds = %55
  call void @llvm.lifetime.end.p0(i64 4, ptr %9) #7
  call void @llvm.lifetime.end.p0(i64 8, ptr %8) #7
  call void @llvm.lifetime.end.p0(i64 20, ptr %7) #7
  call void @llvm.lifetime.end.p0(i64 16, ptr %6) #7
  call void @llvm.lifetime.end.p0(i64 16, ptr %5) #7
  ret void
}